target datalayout = "e-m:e-p270:32:32-p271:32:32-p272:64:64-i64:64-i128:128-f80:128-n8:16:32:64-S128"
target triple = "x86_64-pc-linux-gnu"

%struct.AVFifo = type { ptr, i64, i64, i64, i64, i32, i32, i64 }

; Function Attrs: nounwind uwtable
define ptr @av_fifo_alloc2(i64 noundef %0, i64 noundef %1, i32 noundef %2) #0 {
  %4 = alloca ptr, align 8
  %5 = alloca i64, align 8
  %6 = alloca i64, align 8
  %7 = alloca i32, align 4
  %8 = alloca ptr, align 8
  %9 = alloca ptr, align 8
  %10 = alloca i32, align 4
  store i64 %0, ptr %5, align 8, !tbaa !4
  store i64 %1, ptr %6, align 8, !tbaa !4
  store i32 %2, ptr %7, align 4, !tbaa !8
  call void @llvm.lifetime.start.p0(i64 8, ptr %8) #5
  call void @llvm.lifetime.start.p0(i64 8, ptr %9) #5
  store ptr null, ptr %9, align 8, !tbaa !10
  %11 = load i64, ptr %6, align 8, !tbaa !4
  %12 = icmp ne i64 %11, 0
  br i1 %12, label %14, label %13

13:                                               ; preds = %3
  store ptr null, ptr %4, align 8
  store i32 1, ptr %10, align 4
  br label %58

14:                                               ; preds = %3
  %15 = load i64, ptr %5, align 8, !tbaa !4
  %16 = icmp ne i64 %15, 0
  br i1 %16, label %17, label %25

17:                                               ; preds = %14
  %18 = load i64, ptr %5, align 8, !tbaa !4
  %19 = load i64, ptr %6, align 8, !tbaa !4
  %20 = call ptr @av_realloc_array(ptr noundef null, i64 noundef %18, i64 noundef %19)
  store ptr %20, ptr %9, align 8, !tbaa !10
  %21 = load ptr, ptr %9, align 8, !tbaa !10
  %22 = icmp ne ptr %21, null
  br i1 %22, label %24, label %23

23:                                               ; preds = %17
  store ptr null, ptr %4, align 8
  store i32 1, ptr %10, align 4
  br label %58

24:                                               ; preds = %17
  br label %25

25:                                               ; preds = %24, %14
  %26 = call noalias ptr @av_mallocz(i64 noundef 56)
  store ptr %26, ptr %8, align 8, !tbaa !12
  %27 = load ptr, ptr %8, align 8, !tbaa !12
  %28 = icmp ne ptr %27, null
  br i1 %28, label %31, label %29

29:                                               ; preds = %25
  %30 = load ptr, ptr %9, align 8, !tbaa !10
  call void @av_free(ptr noundef %30)
  store ptr null, ptr %4, align 8
  store i32 1, ptr %10, align 4
  br label %58

31:                                               ; preds = %25
  %32 = load ptr, ptr %9, align 8, !tbaa !10
  %33 = load ptr, ptr %8, align 8, !tbaa !12
  %34 = getelementptr inbounds nuw %struct.AVFifo, ptr %33, i32 0, i32 0
  store ptr %32, ptr %34, align 8, !tbaa !14
  %35 = load i64, ptr %5, align 8, !tbaa !4
  %36 = load ptr, ptr %8, align 8, !tbaa !12
  %37 = getelementptr inbounds nuw %struct.AVFifo, ptr %36, i32 0, i32 2
  store i64 %35, ptr %37, align 8, !tbaa !17
  %38 = load i64, ptr %6, align 8, !tbaa !4
  %39 = load ptr, ptr %8, align 8, !tbaa !12
  %40 = getelementptr inbounds nuw %struct.AVFifo, ptr %39, i32 0, i32 1
  store i64 %38, ptr %40, align 8, !tbaa !18
  %41 = load ptr, ptr %8, align 8, !tbaa !12
  %42 = getelementptr inbounds nuw %struct.AVFifo, ptr %41, i32 0, i32 5
  store i32 1, ptr %42, align 8, !tbaa !19
  %43 = load i32, ptr %7, align 4, !tbaa !8
  %44 = load ptr, ptr %8, align 8, !tbaa !12
  %45 = getelementptr inbounds nuw %struct.AVFifo, ptr %44, i32 0, i32 6
  store i32 %43, ptr %45, align 4, !tbaa !20
  %46 = load i64, ptr %6, align 8, !tbaa !4
  %47 = udiv i64 1048576, %46
  %48 = icmp ugt i64 %47, 1
  br i1 %48, label %49, label %52

49:                                               ; preds = %31
  %50 = load i64, ptr %6, align 8, !tbaa !4
  %51 = udiv i64 1048576, %50
  br label %53

52:                                               ; preds = %31
  br label %53

53:                                               ; preds = %52, %49
  %54 = phi i64 [ %51, %49 ], [ 1, %52 ]
  %55 = load ptr, ptr %8, align 8, !tbaa !12
  %56 = getelementptr inbounds nuw %struct.AVFifo, ptr %55, i32 0, i32 7
  store i64 %54, ptr %56, align 8, !tbaa !21
  %57 = load ptr, ptr %8, align 8, !tbaa !12
  store ptr %57, ptr %4, align 8
  store i32 1, ptr %10, align 4
  br label %58

58:                                               ; preds = %53, %29, %23, %13
  call void @llvm.lifetime.end.p0(i64 8, ptr %9) #5
  call void @llvm.lifetime.end.p0(i64 8, ptr %8) #5
  %59 = load ptr, ptr %4, align 8
  ret ptr %59
}