; Function Attrs: nounwind uwtable
define noalias ptr @av_fifo_alloc2(i64 noundef %0, i64 noundef %1, i32 noundef %2) local_unnamed_addr #0 {
  %.not = icmp eq i64 %1, 0
  br i1 %.not, label %21, label %4

4:                                                ; preds = %3
  %.not26 = icmp eq i64 %0, 0
  br i1 %.not26, label %7, label %5

5:                                                ; preds = %4
  %6 = tail call ptr @av_realloc_array(ptr noundef null, i64 noundef %0, i64 noundef %1) #10
  %.not27 = icmp eq ptr %6, null
  br i1 %.not27, label %21, label %7

7:                                                ; preds = %5, %4
  %.0 = phi ptr [ %6, %5 ], [ null, %4 ]
  %8 = tail call noalias ptr @av_mallocz(i64 noundef 56) #10
  %.not28 = icmp eq ptr %8, null
  br i1 %.not28, label %9, label %10

9:                                                ; preds = %7
  tail call void @av_free(ptr noundef %.0) #10
  br label %21

10:                                               ; preds = %7
  store ptr %.0, ptr %8, align 8, !tbaa !4
  %11 = getelementptr inbounds nuw i8, ptr %8, i64 16
  store i64 %0, ptr %11, align 8, !tbaa !12
  %12 = getelementptr inbounds nuw i8, ptr %8, i64 8
  store i64 %1, ptr %12, align 8, !tbaa !13
  %13 = getelementptr inbounds nuw i8, ptr %8, i64 40
  store i32 1, ptr %13, align 8, !tbaa !14
  %14 = getelementptr inbounds nuw i8, ptr %8, i64 44
  store i32 %2, ptr %14, align 4, !tbaa !15
  %15 = icmp ult i64 %1, 524289
  br i1 %15, label %16, label %18

16:                                               ; preds = %10
  %.rhs.trunc = trunc nuw nsw i64 %1 to i32
  %17 = udiv i32 1048576, %.rhs.trunc
  %.zext = zext nneg i32 %17 to i64
  br label %18

18:                                               ; preds = %10, %16
  %19 = phi i64 [ %.zext, %16 ], [ 1, %10 ]
  %20 = getelementptr inbounds nuw i8, ptr %8, i64 48
  store i64 %19, ptr %20, align 8, !tbaa !16
  br label %21

21:                                               ; preds = %5, %3, %18, %9
  %.020 = phi ptr [ %8, %18 ], [ null, %9 ], [ null, %3 ], [ null, %5 ]
  ret ptr %.020
}